target datalayout = "e-m:e-p270:32:32-p271:32:32-p272:64:64-i64:64-i128:128-f80:128-n8:16:32:64-S128"
target triple = "x86_64-pc-linux-gnu"

%struct.FuncState = type { ptr, ptr, ptr, ptr, ptr, ptr, i32, i32, i32, i32, i32, i32, i16, i8, [60 x %struct.upvaldesc], [200 x i16] }
%struct.upvaldesc = type { i8, i8 }
%struct.Proto = type { ptr, i8, i8, ptr, ptr, ptr, ptr, ptr, ptr, ptr, i32, i32, i32, i32, i32, i32, i32, i32, ptr, i8, i8, i8, i8 }
%struct.LexState = type { i32, i32, i32, %struct.Token, %struct.Token, ptr, ptr, ptr, ptr, ptr, i8 }
%struct.Token = type { i32, %union.SemInfo }
%union.SemInfo = type { double }
%struct.expdesc = type { i32, %union.anon, i32, i32 }
%union.anon = type { double }
%struct.anon = type { i32, i32 }

; Function Attrs: nounwind uwtable
define hidden void @luaK_setoneret(ptr noundef %0, ptr noundef %1) #0 {
  %3 = alloca ptr, align 8
  %4 = alloca ptr, align 8
  store ptr %0, ptr %3, align 8, !tbaa !4
  store ptr %1, ptr %4, align 8, !tbaa !60
  %5 = load ptr, ptr %4, align 8, !tbaa !60
  %6 = getelementptr inbounds nuw %struct.expdesc, ptr %5, i32 0, i32 0
  %7 = load i32, ptr %6, align 8, !tbaa !62
  %8 = icmp eq i32 %7, 13
  br i1 %8, label %9, label %29

9:                                                ; preds = %2
  %10 = load ptr, ptr %4, align 8, !tbaa !60
  %11 = getelementptr inbounds nuw %struct.expdesc, ptr %10, i32 0, i32 0
  store i32 12, ptr %11, align 8, !tbaa !62
  %12 = load ptr, ptr %3, align 8, !tbaa !4
  %13 = getelementptr inbounds nuw %struct.FuncState, ptr %12, i32 0, i32 0
  %14 = load ptr, ptr %13, align 8, !tbaa !21
  %15 = getelementptr inbounds nuw %struct.Proto, ptr %14, i32 0, i32 4
  %16 = load ptr, ptr %15, align 8, !tbaa !22
  %17 = load ptr, ptr %4, align 8, !tbaa !60
  %18 = getelementptr inbounds nuw %struct.expdesc, ptr %17, i32 0, i32 1
  %19 = getelementptr inbounds nuw %struct.anon, ptr %18, i32 0, i32 0
  %20 = load i32, ptr %19, align 8, !tbaa !46
  %21 = sext i32 %20 to i64
  %22 = getelementptr inbounds i32, ptr %16, i64 %21
  %23 = load i32, ptr %22, align 4, !tbaa !9
  %24 = lshr i32 %23, 6
  %25 = and i32 %24, 255
  %26 = load ptr, ptr %4, align 8, !tbaa !60
  %27 = getelementptr inbounds nuw %struct.expdesc, ptr %26, i32 0, i32 1
  %28 = getelementptr inbounds nuw %struct.anon, ptr %27, i32 0, i32 0
  store i32 %25, ptr %28, align 8, !tbaa !46
  br label %63

29:                                               ; preds = %2
  %30 = load ptr, ptr %4, align 8, !tbaa !60
  %31 = getelementptr inbounds nuw %struct.expdesc, ptr %30, i32 0, i32 0
  %32 = load i32, ptr %31, align 8, !tbaa !62
  %33 = icmp eq i32 %32, 14
  br i1 %33, label %34, label %62

34:                                               ; preds = %29
  %35 = load ptr, ptr %3, align 8, !tbaa !4
  %36 = getelementptr inbounds nuw %struct.FuncState, ptr %35, i32 0, i32 0
  %37 = load ptr, ptr %36, align 8, !tbaa !21
  %38 = getelementptr inbounds nuw %struct.Proto, ptr %37, i32 0, i32 4
  %39 = load ptr, ptr %38, align 8, !tbaa !22
  %40 = load ptr, ptr %4, align 8, !tbaa !60
  %41 = getelementptr inbounds nuw %struct.expdesc, ptr %40, i32 0, i32 1
  %42 = getelementptr inbounds nuw %struct.anon, ptr %41, i32 0, i32 0
  %43 = load i32, ptr %42, align 8, !tbaa !46
  %44 = sext i32 %43 to i64
  %45 = getelementptr inbounds i32, ptr %39, i64 %44
  %46 = load i32, ptr %45, align 4, !tbaa !9
  %47 = and i32 %46, 8388607
  %48 = or i32 %47, 16777216
  %49 = load ptr, ptr %3, align 8, !tbaa !4
  %50 = getelementptr inbounds nuw %struct.FuncState, ptr %49, i32 0, i32 0
  %51 = load ptr, ptr %50, align 8, !tbaa !21
  %52 = getelementptr inbounds nuw %struct.Proto, ptr %51, i32 0, i32 4
  %53 = load ptr, ptr %52, align 8, !tbaa !22
  %54 = load ptr, ptr %4, align 8, !tbaa !60
  %55 = getelementptr inbounds nuw %struct.expdesc, ptr %54, i32 0, i32 1
  %56 = getelementptr inbounds nuw %struct.anon, ptr %55, i32 0, i32 0
  %57 = load i32, ptr %56, align 8, !tbaa !46
  %58 = sext i32 %57 to i64
  %59 = getelementptr inbounds i32, ptr %53, i64 %58
  store i32 %48, ptr %59, align 4, !tbaa !9
  %60 = load ptr, ptr %4, align 8, !tbaa !60
  %61 = getelementptr inbounds nuw %struct.expdesc, ptr %60, i32 0, i32 0
  store i32 11, ptr %61, align 8, !tbaa !62
  br label %62

62:                                               ; preds = %34, %29
  br label %63

63:                                               ; preds = %62, %9
  ret void
}

; Function Attrs: nounwind uwtable
define internal void @freereg(ptr noundef %0, i32 noundef %1) #0 {
  %3 = alloca ptr, align 8
  %4 = alloca i32, align 4
  store ptr %0, ptr %3, align 8, !tbaa !4
  store i32 %1, ptr %4, align 4, !tbaa !9
  %5 = load i32, ptr %4, align 4, !tbaa !9
  %6 = and i32 %5, 256
  %7 = icmp ne i32 %6, 0
  br i1 %7, label %20, label %8

8:                                                ; preds = %2
  %9 = load i32, ptr %4, align 4, !tbaa !9
  %10 = load ptr, ptr %3, align 8, !tbaa !4
  %11 = getelementptr inbounds nuw %struct.FuncState, ptr %10, i32 0, i32 13
  %12 = load i8, ptr %11, align 2, !tbaa !20
  %13 = zext i8 %12 to i32
  %14 = icmp sge i32 %9, %13
  br i1 %14, label %15, label %20

15:                                               ; preds = %8
  %16 = load ptr, ptr %3, align 8, !tbaa !4
  %17 = getelementptr inbounds nuw %struct.FuncState, ptr %16, i32 0, i32 9
  %18 = load i32, ptr %17, align 4, !tbaa !42
  %19 = add nsw i32 %18, -1
  store i32 %19, ptr %17, align 4, !tbaa !42
  br label %20

20:                                               ; preds = %15, %8, %2
  ret void
}

; Function Attrs: nounwind uwtable
define hidden i32 @luaK_codeABx(ptr noundef %0, i32 noundef %1, i32 noundef %2, i32 noundef %3) #0 {
  %5 = alloca ptr, align 8
  %6 = alloca i32, align 4
  %7 = alloca i32, align 4
  %8 = alloca i32, align 4
  store ptr %0, ptr %5, align 8, !tbaa !4
  store i32 %1, ptr %6, align 4, !tbaa !9
  store i32 %2, ptr %7, align 4, !tbaa !9
  store i32 %3, ptr %8, align 4, !tbaa !9
  %9 = load ptr, ptr %5, align 8, !tbaa !4
  %10 = load i32, ptr %6, align 4, !tbaa !9
  %11 = shl i32 %10, 0
  %12 = load i32, ptr %7, align 4, !tbaa !9
  %13 = shl i32 %12, 6
  %14 = or i32 %11, %13
  %15 = load i32, ptr %8, align 4, !tbaa !9
  %16 = shl i32 %15, 14
  %17 = or i32 %14, %16
  %18 = load ptr, ptr %5, align 8, !tbaa !4
  %19 = getelementptr inbounds nuw %struct.FuncState, ptr %18, i32 0, i32 3
  %20 = load ptr, ptr %19, align 8, !tbaa !32
  %21 = getelementptr inbounds nuw %struct.LexState, ptr %20, i32 0, i32 2
  %22 = load i32, ptr %21, align 8, !tbaa !33
  %23 = call i32 @luaK_code(ptr noundef %9, i32 noundef %17, i32 noundef %22)
  ret i32 %23
}

; Function Attrs: nounwind uwtable
define hidden i32 @luaK_codeABC(ptr noundef %0, i32 noundef %1, i32 noundef %2, i32 noundef %3, i32 noundef %4) #0 {
  %6 = alloca ptr, align 8
  %7 = alloca i32, align 4
  %8 = alloca i32, align 4
  %9 = alloca i32, align 4
  %10 = alloca i32, align 4
  store ptr %0, ptr %6, align 8, !tbaa !4
  store i32 %1, ptr %7, align 4, !tbaa !9
  store i32 %2, ptr %8, align 4, !tbaa !9
  store i32 %3, ptr %9, align 4, !tbaa !9
  store i32 %4, ptr %10, align 4, !tbaa !9
  %11 = load ptr, ptr %6, align 8, !tbaa !4
  %12 = load i32, ptr %7, align 4, !tbaa !9
  %13 = shl i32 %12, 0
  %14 = load i32, ptr %8, align 4, !tbaa !9
  %15 = shl i32 %14, 6
  %16 = or i32 %13, %15
  %17 = load i32, ptr %9, align 4, !tbaa !9
  %18 = shl i32 %17, 23
  %19 = or i32 %16, %18
  %20 = load i32, ptr %10, align 4, !tbaa !9
  %21 = shl i32 %20, 14
  %22 = or i32 %19, %21
  %23 = load ptr, ptr %6, align 8, !tbaa !4
  %24 = getelementptr inbounds nuw %struct.FuncState, ptr %23, i32 0, i32 3
  %25 = load ptr, ptr %24, align 8, !tbaa !32
  %26 = getelementptr inbounds nuw %struct.LexState, ptr %25, i32 0, i32 2
  %27 = load i32, ptr %26, align 8, !tbaa !33
  %28 = call i32 @luaK_code(ptr noundef %11, i32 noundef %22, i32 noundef %27)
  ret i32 %28
}

; Function Attrs: nounwind uwtable
define hidden void @luaK_dischargevars(ptr noundef %0, ptr noundef %1) #0 {
  %3 = alloca ptr, align 8
  %4 = alloca ptr, align 8
  store ptr %0, ptr %3, align 8, !tbaa !4
  store ptr %1, ptr %4, align 8, !tbaa !60
  %5 = load ptr, ptr %4, align 8, !tbaa !60
  %6 = getelementptr inbounds nuw %struct.expdesc, ptr %5, i32 0, i32 0
  %7 = load i32, ptr %6, align 8, !tbaa !62
  switch i32 %7, label %64 [
    i32 6, label %8
    i32 7, label %11
    i32 8, label %23
    i32 9, label %35
    i32 14, label %61
    i32 13, label %61
  ]

8:                                                ; preds = %2
  %9 = load ptr, ptr %4, align 8, !tbaa !60
  %10 = getelementptr inbounds nuw %struct.expdesc, ptr %9, i32 0, i32 0
  store i32 12, ptr %10, align 8, !tbaa !62
  br label %65

11:                                               ; preds = %2
  %12 = load ptr, ptr %3, align 8, !tbaa !4
  %13 = load ptr, ptr %4, align 8, !tbaa !60
  %14 = getelementptr inbounds nuw %struct.expdesc, ptr %13, i32 0, i32 1
  %15 = getelementptr inbounds nuw %struct.anon, ptr %14, i32 0, i32 0
  %16 = load i32, ptr %15, align 8, !tbaa !46
  %17 = call i32 @luaK_codeABC(ptr noundef %12, i32 noundef 4, i32 noundef 0, i32 noundef %16, i32 noundef 0)
  %18 = load ptr, ptr %4, align 8, !tbaa !60
  %19 = getelementptr inbounds nuw %struct.expdesc, ptr %18, i32 0, i32 1
  %20 = getelementptr inbounds nuw %struct.anon, ptr %19, i32 0, i32 0
  store i32 %17, ptr %20, align 8, !tbaa !46
  %21 = load ptr, ptr %4, align 8, !tbaa !60
  %22 = getelementptr inbounds nuw %struct.expdesc, ptr %21, i32 0, i32 0
  store i32 11, ptr %22, align 8, !tbaa !62
  br label %65

23:                                               ; preds = %2
  %24 = load ptr, ptr %3, align 8, !tbaa !4
  %25 = load ptr, ptr %4, align 8, !tbaa !60
  %26 = getelementptr inbounds nuw %struct.expdesc, ptr %25, i32 0, i32 1
  %27 = getelementptr inbounds nuw %struct.anon, ptr %26, i32 0, i32 0
  %28 = load i32, ptr %27, align 8, !tbaa !46
  %29 = call i32 @luaK_codeABx(ptr noundef %24, i32 noundef 5, i32 noundef 0, i32 noundef %28)
  %30 = load ptr, ptr %4, align 8, !tbaa !60
  %31 = getelementptr inbounds nuw %struct.expdesc, ptr %30, i32 0, i32 1
  %32 = getelementptr inbounds nuw %struct.anon, ptr %31, i32 0, i32 0
  store i32 %29, ptr %32, align 8, !tbaa !46
  %33 = load ptr, ptr %4, align 8, !tbaa !60
  %34 = getelementptr inbounds nuw %struct.expdesc, ptr %33, i32 0, i32 0
  store i32 11, ptr %34, align 8, !tbaa !62
  br label %65

35:                                               ; preds = %2
  %36 = load ptr, ptr %3, align 8, !tbaa !4
  %37 = load ptr, ptr %4, align 8, !tbaa !60
  %38 = getelementptr inbounds nuw %struct.expdesc, ptr %37, i32 0, i32 1
  %39 = getelementptr inbounds nuw %struct.anon, ptr %38, i32 0, i32 1
  %40 = load i32, ptr %39, align 4, !tbaa !46
  call void @freereg(ptr noundef %36, i32 noundef %40)
  %41 = load ptr, ptr %3, align 8, !tbaa !4
  %42 = load ptr, ptr %4, align 8, !tbaa !60
  %43 = getelementptr inbounds nuw %struct.expdesc, ptr %42, i32 0, i32 1
  %44 = getelementptr inbounds nuw %struct.anon, ptr %43, i32 0, i32 0
  %45 = load i32, ptr %44, align 8, !tbaa !46
  call void @freereg(ptr noundef %41, i32 noundef %45)
  %46 = load ptr, ptr %3, align 8, !tbaa !4
  %47 = load ptr, ptr %4, align 8, !tbaa !60
  %48 = getelementptr inbounds nuw %struct.expdesc, ptr %47, i32 0, i32 1
  %49 = getelementptr inbounds nuw %struct.anon, ptr %48, i32 0, i32 0
  %50 = load i32, ptr %49, align 8, !tbaa !46
  %51 = load ptr, ptr %4, align 8, !tbaa !60
  %52 = getelementptr inbounds nuw %struct.expdesc, ptr %51, i32 0, i32 1
  %53 = getelementptr inbounds nuw %struct.anon, ptr %52, i32 0, i32 1
  %54 = load i32, ptr %53, align 4, !tbaa !46
  %55 = call i32 @luaK_codeABC(ptr noundef %46, i32 noundef 6, i32 noundef 0, i32 noundef %50, i32 noundef %54)
  %56 = load ptr, ptr %4, align 8, !tbaa !60
  %57 = getelementptr inbounds nuw %struct.expdesc, ptr %56, i32 0, i32 1
  %58 = getelementptr inbounds nuw %struct.anon, ptr %57, i32 0, i32 0
  store i32 %55, ptr %58, align 8, !tbaa !46
  %59 = load ptr, ptr %4, align 8, !tbaa !60
  %60 = getelementptr inbounds nuw %struct.expdesc, ptr %59, i32 0, i32 0
  store i32 11, ptr %60, align 8, !tbaa !62
  br label %65

61:                                               ; preds = %2, %2
  %62 = load ptr, ptr %3, align 8, !tbaa !4
  %63 = load ptr, ptr %4, align 8, !tbaa !60
  call void @luaK_setoneret(ptr noundef %62, ptr noundef %63)
  br label %65

64:                                               ; preds = %2
  br label %65

65:                                               ; preds = %64, %61, %35, %23, %11, %8
  ret void
}