; Function Attrs: nounwind uwtable
define hidden void @luaK_dischargevars(ptr noundef captures(none) %0, ptr noundef captures(none) %1) local_unnamed_addr #0 {
  %3 = load i32, ptr %1, align 8, !tbaa !51
  switch i32 %3, label %luaK_setoneret.exit [
    i32 6, label %4
    i32 7, label %5
    i32 8, label %15
    i32 9, label %25
    i32 13, label %59
    i32 14, label %70
  ]

4:                                                ; preds = %2
  store i32 12, ptr %1, align 8, !tbaa !51
  br label %luaK_setoneret.exit

5:                                                ; preds = %2
  %6 = getelementptr inbounds nuw i8, ptr %1, i64 8
  %7 = load i32, ptr %6, align 8, !tbaa !39
  %8 = shl i32 %7, 23
  %9 = or disjoint i32 %8, 4
  %10 = getelementptr inbounds nuw i8, ptr %0, i64 24
  %11 = load ptr, ptr %10, align 8, !tbaa !30
  %12 = getelementptr inbounds nuw i8, ptr %11, i64 8
  %13 = load i32, ptr %12, align 8, !tbaa !31
  %14 = tail call fastcc i32 @luaK_code(ptr noundef %0, i32 noundef %9, i32 noundef %13)
  store i32 %14, ptr %6, align 8, !tbaa !39
  store i32 11, ptr %1, align 8, !tbaa !51
  br label %luaK_setoneret.exit

15:                                               ; preds = %2
  %16 = getelementptr inbounds nuw i8, ptr %1, i64 8
  %17 = load i32, ptr %16, align 8, !tbaa !39
  %18 = shl i32 %17, 14
  %19 = or disjoint i32 %18, 5
  %20 = getelementptr inbounds nuw i8, ptr %0, i64 24
  %21 = load ptr, ptr %20, align 8, !tbaa !30
  %22 = getelementptr inbounds nuw i8, ptr %21, i64 8
  %23 = load i32, ptr %22, align 8, !tbaa !31
  %24 = tail call fastcc i32 @luaK_code(ptr noundef %0, i32 noundef %19, i32 noundef %23)
  store i32 %24, ptr %16, align 8, !tbaa !39
  store i32 11, ptr %1, align 8, !tbaa !51
  br label %luaK_setoneret.exit

25:                                               ; preds = %2
  %26 = getelementptr inbounds nuw i8, ptr %1, i64 8
  %27 = getelementptr inbounds nuw i8, ptr %1, i64 12
  %28 = load i32, ptr %27, align 4, !tbaa !39
  %29 = and i32 %28, 256
  %.not.i = icmp eq i32 %29, 0
  br i1 %.not.i, label %30, label %freereg.exit

30:                                               ; preds = %25
  %31 = getelementptr inbounds nuw i8, ptr %0, i64 74
  %32 = load i8, ptr %31, align 2, !tbaa !18
  %33 = zext i8 %32 to i32
  %.not3.i = icmp slt i32 %28, %33
  br i1 %.not3.i, label %freereg.exit, label %34

34:                                               ; preds = %30
  %35 = getelementptr inbounds nuw i8, ptr %0, i64 60
  %36 = load i32, ptr %35, align 4, !tbaa !41
  %37 = add nsw i32 %36, -1
  store i32 %37, ptr %35, align 4, !tbaa !41
  br label %freereg.exit

freereg.exit:                                     ; preds = %25, %30, %34
  %38 = load i32, ptr %26, align 8, !tbaa !39
  %39 = and i32 %38, 256
  %.not.i21 = icmp eq i32 %39, 0
  br i1 %.not.i21, label %40, label %freereg.exit23

40:                                               ; preds = %freereg.exit
  %41 = getelementptr inbounds nuw i8, ptr %0, i64 74
  %42 = load i8, ptr %41, align 2, !tbaa !18
  %43 = zext i8 %42 to i32
  %.not3.i22 = icmp slt i32 %38, %43
  br i1 %.not3.i22, label %freereg.exit23, label %44

44:                                               ; preds = %40
  %45 = getelementptr inbounds nuw i8, ptr %0, i64 60
  %46 = load i32, ptr %45, align 4, !tbaa !41
  %47 = add nsw i32 %46, -1
  store i32 %47, ptr %45, align 4, !tbaa !41
  %.pre = load i32, ptr %26, align 8, !tbaa !39
  br label %freereg.exit23

freereg.exit23:                                   ; preds = %freereg.exit, %40, %44
  %48 = phi i32 [ %38, %freereg.exit ], [ %38, %40 ], [ %.pre, %44 ]
  %49 = load i32, ptr %27, align 4, !tbaa !39
  %50 = shl i32 %48, 23
  %51 = shl i32 %49, 14
  %52 = or i32 %50, %51
  %53 = or disjoint i32 %52, 6
  %54 = getelementptr inbounds nuw i8, ptr %0, i64 24
  %55 = load ptr, ptr %54, align 8, !tbaa !30
  %56 = getelementptr inbounds nuw i8, ptr %55, i64 8
  %57 = load i32, ptr %56, align 8, !tbaa !31
  %58 = tail call fastcc i32 @luaK_code(ptr noundef %0, i32 noundef %53, i32 noundef %57)
  store i32 %58, ptr %26, align 8, !tbaa !39
  store i32 11, ptr %1, align 8, !tbaa !51
  br label %luaK_setoneret.exit

59:                                               ; preds = %2
  store i32 12, ptr %1, align 8, !tbaa !51
  %60 = load ptr, ptr %0, align 8, !tbaa !19
  %61 = getelementptr inbounds nuw i8, ptr %60, i64 24
  %62 = load ptr, ptr %61, align 8, !tbaa !20
  %63 = getelementptr inbounds nuw i8, ptr %1, i64 8
  %64 = load i32, ptr %63, align 8, !tbaa !39
  %65 = sext i32 %64 to i64
  %66 = getelementptr inbounds i32, ptr %62, i64 %65
  %67 = load i32, ptr %66, align 4, !tbaa !29
  %68 = lshr i32 %67, 6
  %69 = and i32 %68, 255
  store i32 %69, ptr %63, align 8, !tbaa !39
  br label %luaK_setoneret.exit

70:                                               ; preds = %2
  %71 = load ptr, ptr %0, align 8, !tbaa !19
  %72 = getelementptr inbounds nuw i8, ptr %71, i64 24
  %73 = load ptr, ptr %72, align 8, !tbaa !20
  %74 = getelementptr inbounds nuw i8, ptr %1, i64 8
  %75 = load i32, ptr %74, align 8, !tbaa !39
  %76 = sext i32 %75 to i64
  %77 = getelementptr inbounds i32, ptr %73, i64 %76
  %78 = load i32, ptr %77, align 4, !tbaa !29
  %79 = and i32 %78, 8388607
  %80 = or disjoint i32 %79, 16777216
  store i32 %80, ptr %77, align 4, !tbaa !29
  store i32 11, ptr %1, align 8, !tbaa !51
  br label %luaK_setoneret.exit

luaK_setoneret.exit:                              ; preds = %2, %70, %59, %freereg.exit23, %15, %5, %4
  ret void
}